target datalayout = "e-m:e-p270:32:32-p271:32:32-p272:64:64-i64:64-i128:128-f80:128-n8:16:32:64-S128"
target triple = "x86_64-pc-linux-gnu"

%struct.bio_st = type { ptr, ptr, ptr, i32, i32, i32, i32, i32, i32, ptr, ptr, i64, i64 }
%struct.bio_bio_st = type { ptr, i32, i64, i64, i64, ptr, i8, i8, i8, i64 }

; Function Attrs: nounwind uwtable
define internal void @bio_destroy_pair(ptr noundef %0) #0 {
  %2 = alloca ptr, align 8
  %3 = alloca ptr, align 8
  %4 = alloca ptr, align 8
  %5 = alloca ptr, align 8
  %6 = alloca i32, align 4
  store ptr %0, ptr %2, align 8, !tbaa !6
  call void @llvm.lifetime.start.p0(i64 8, ptr %3) #8
  %7 = load ptr, ptr %2, align 8, !tbaa !6
  %8 = getelementptr inbounds nuw %struct.bio_st, ptr %7, i32 0, i32 9
  %9 = load ptr, ptr %8, align 8, !tbaa !22
  store ptr %9, ptr %3, align 8, !tbaa !23
  call void @llvm.lifetime.start.p0(i64 8, ptr %4) #8
  call void @llvm.lifetime.start.p0(i64 8, ptr %5) #8
  %10 = load ptr, ptr %3, align 8, !tbaa !23
  %11 = icmp eq ptr %10, null
  br i1 %11, label %12, label %13

12:                                               ; preds = %1
  store i32 1, ptr %6, align 4
  br label %40

13:                                               ; preds = %1
  %14 = load ptr, ptr %3, align 8, !tbaa !23
  %15 = getelementptr inbounds nuw %struct.bio_bio_st, ptr %14, i32 0, i32 0
  %16 = load ptr, ptr %15, align 8, !tbaa !25
  store ptr %16, ptr %4, align 8, !tbaa !6
  %17 = load ptr, ptr %4, align 8, !tbaa !6
  %18 = icmp eq ptr %17, null
  br i1 %18, label %19, label %20

19:                                               ; preds = %13
  store i32 1, ptr %6, align 4
  br label %40

20:                                               ; preds = %13
  %21 = load ptr, ptr %4, align 8, !tbaa !6
  %22 = getelementptr inbounds nuw %struct.bio_st, ptr %21, i32 0, i32 9
  %23 = load ptr, ptr %22, align 8, !tbaa !22
  store ptr %23, ptr %5, align 8, !tbaa !23
  %24 = load ptr, ptr %5, align 8, !tbaa !23
  %25 = getelementptr inbounds nuw %struct.bio_bio_st, ptr %24, i32 0, i32 0
  store ptr null, ptr %25, align 8, !tbaa !25
  %26 = load ptr, ptr %4, align 8, !tbaa !6
  %27 = getelementptr inbounds nuw %struct.bio_st, ptr %26, i32 0, i32 3
  store i32 0, ptr %27, align 8, !tbaa !17
  %28 = load ptr, ptr %5, align 8, !tbaa !23
  %29 = getelementptr inbounds nuw %struct.bio_bio_st, ptr %28, i32 0, i32 2
  store i64 0, ptr %29, align 8, !tbaa !29
  %30 = load ptr, ptr %5, align 8, !tbaa !23
  %31 = getelementptr inbounds nuw %struct.bio_bio_st, ptr %30, i32 0, i32 3
  store i64 0, ptr %31, align 8, !tbaa !31
  %32 = load ptr, ptr %3, align 8, !tbaa !23
  %33 = getelementptr inbounds nuw %struct.bio_bio_st, ptr %32, i32 0, i32 0
  store ptr null, ptr %33, align 8, !tbaa !25
  %34 = load ptr, ptr %2, align 8, !tbaa !6
  %35 = getelementptr inbounds nuw %struct.bio_st, ptr %34, i32 0, i32 3
  store i32 0, ptr %35, align 8, !tbaa !17
  %36 = load ptr, ptr %3, align 8, !tbaa !23
  %37 = getelementptr inbounds nuw %struct.bio_bio_st, ptr %36, i32 0, i32 2
  store i64 0, ptr %37, align 8, !tbaa !29
  %38 = load ptr, ptr %3, align 8, !tbaa !23
  %39 = getelementptr inbounds nuw %struct.bio_bio_st, ptr %38, i32 0, i32 3
  store i64 0, ptr %39, align 8, !tbaa !31
  store i32 0, ptr %6, align 4
  br label %40

40:                                               ; preds = %20, %19, %12
  call void @llvm.lifetime.end.p0(i64 8, ptr %5) #8
  call void @llvm.lifetime.end.p0(i64 8, ptr %4) #8
  call void @llvm.lifetime.end.p0(i64 8, ptr %3) #8
  %41 = load i32, ptr %6, align 4
  switch i32 %41, label %43 [
    i32 0, label %42
    i32 1, label %42
  ]

42:                                               ; preds = %40, %40
  ret void

43:                                               ; preds = %40
  unreachable
}

; Function Attrs: nounwind uwtable
define internal i32 @bio_free(ptr noundef %0) #0 {
  %2 = alloca i32, align 4
  %3 = alloca ptr, align 8
  %4 = alloca ptr, align 8
  %5 = alloca i32, align 4
  store ptr %0, ptr %3, align 8, !tbaa !6
  call void @llvm.lifetime.start.p0(i64 8, ptr %4) #8
  %6 = load ptr, ptr %3, align 8, !tbaa !6
  %7 = icmp eq ptr %6, null
  br i1 %7, label %8, label %9

8:                                                ; preds = %1
  store i32 0, ptr %2, align 4
  store i32 1, ptr %5, align 4
  br label %30

9:                                                ; preds = %1
  %10 = load ptr, ptr %3, align 8, !tbaa !6
  %11 = getelementptr inbounds nuw %struct.bio_st, ptr %10, i32 0, i32 9
  %12 = load ptr, ptr %11, align 8, !tbaa !22
  store ptr %12, ptr %4, align 8, !tbaa !23
  %13 = load ptr, ptr %4, align 8, !tbaa !23
  %14 = getelementptr inbounds nuw %struct.bio_bio_st, ptr %13, i32 0, i32 0
  %15 = load ptr, ptr %14, align 8, !tbaa !25
  %16 = icmp ne ptr %15, null
  br i1 %16, label %17, label %19

17:                                               ; preds = %9
  %18 = load ptr, ptr %3, align 8, !tbaa !6
  call void @bio_destroy_pair(ptr noundef %18)
  br label %19

19:                                               ; preds = %17, %9
  %20 = load ptr, ptr %4, align 8, !tbaa !23
  %21 = getelementptr inbounds nuw %struct.bio_bio_st, ptr %20, i32 0, i32 6
  %22 = load i8, ptr %21, align 8, !tbaa !41
  %23 = icmp ne i8 %22, 0
  br i1 %23, label %28, label %24

24:                                               ; preds = %19
  %25 = load ptr, ptr %4, align 8, !tbaa !23
  %26 = getelementptr inbounds nuw %struct.bio_bio_st, ptr %25, i32 0, i32 5
  %27 = load ptr, ptr %26, align 8, !tbaa !32
  call void @free(ptr noundef %27) #8
  br label %28

28:                                               ; preds = %24, %19
  %29 = load ptr, ptr %4, align 8, !tbaa !23
  call void @free(ptr noundef %29) #8
  store i32 1, ptr %2, align 4
  store i32 1, ptr %5, align 4
  br label %30

30:                                               ; preds = %28, %8
  call void @llvm.lifetime.end.p0(i64 8, ptr %4) #8
  %31 = load i32, ptr %2, align 4
  ret i32 %31
}