; Function Attrs: mustprogress nounwind willreturn uwtable
define internal range(i32 0, 2) i32 @bio_free(ptr noundef captures(address_is_null) %0) #4 {
  %2 = icmp eq ptr %0, null
  br i1 %2, label %20, label %3

3:                                                ; preds = %1
  %4 = getelementptr inbounds nuw i8, ptr %0, i64 48
  %5 = load ptr, ptr %4, align 8, !tbaa !17
  %6 = load ptr, ptr %5, align 8, !tbaa !18
  %.not = icmp eq ptr %6, null
  br i1 %.not, label %13, label %bio_destroy_pair.exit

bio_destroy_pair.exit:                            ; preds = %3
  %7 = getelementptr inbounds nuw i8, ptr %6, i64 48
  %8 = load ptr, ptr %7, align 8, !tbaa !17
  store ptr null, ptr %8, align 8, !tbaa !18
  %9 = getelementptr inbounds nuw i8, ptr %6, i64 24
  store i32 0, ptr %9, align 8, !tbaa !10
  %10 = getelementptr inbounds nuw i8, ptr %8, i64 16
  tail call void @llvm.memset.p0.i64(ptr noundef nonnull align 8 dereferenceable(16) %10, i8 0, i64 16, i1 false)
  store ptr null, ptr %5, align 8, !tbaa !18
  %11 = getelementptr inbounds nuw i8, ptr %0, i64 24
  store i32 0, ptr %11, align 8, !tbaa !10
  %12 = getelementptr inbounds nuw i8, ptr %5, i64 16
  tail call void @llvm.memset.p0.i64(ptr noundef nonnull align 8 dereferenceable(16) %12, i8 0, i64 16, i1 false)
  br label %13

13:                                               ; preds = %bio_destroy_pair.exit, %3
  %14 = getelementptr inbounds nuw i8, ptr %5, i64 48
  %15 = load i8, ptr %14, align 8, !tbaa !31
  %.not8 = icmp eq i8 %15, 0
  br i1 %.not8, label %16, label %19

16:                                               ; preds = %13
  %17 = getelementptr inbounds nuw i8, ptr %5, i64 40
  %18 = load ptr, ptr %17, align 8, !tbaa !25
  tail call void @free(ptr noundef %18) #12
  br label %19

19:                                               ; preds = %16, %13
  tail call void @free(ptr noundef nonnull %5) #12
  br label %20

20:                                               ; preds = %1, %19
  %.0 = phi i32 [ 1, %19 ], [ 0, %1 ]
  ret i32 %.0
}